; Function Attrs: mustprogress nofree norecurse nosync nounwind willreturn memory(argmem: read) uwtable
define noundef i64 @_ZNK8triggers18disabled_trigger_t11tdata1_readEPK11processor_t(ptr noundef nonnull readonly align 8 captures(none) dereferenceable(45) %0, ptr noundef readonly captures(none) %1) unnamed_addr #3 align 2 personality ptr @__gxx_personality_v0 {
  %3 = getelementptr inbounds nuw i8, ptr %1, i64 3964
  %4 = load i32, ptr %3, align 4, !tbaa !17
  %5 = zext i32 %4 to i64
  %6 = add nsw i64 %5, -4
  %7 = shl i64 15, %6
  %8 = shl i64 30, %6
  %9 = xor i64 %8, -1
  %10 = and i64 %7, %9
  %11 = mul i64 %10, 15
  %12 = add nsw i64 %5, -5
  %13 = shl nuw i64 1, %12
  %14 = xor i64 %13, -1
  %15 = and i64 %11, %14
  %16 = and i64 %15, %7
  %17 = getelementptr inbounds nuw i8, ptr %0, i64 44
  %18 = load i8, ptr %17, align 4, !tbaa !161, !range !14, !noundef !15
  %19 = zext nneg i8 %18 to i64
  %20 = shl i64 2, %12
  %21 = xor i64 %20, -1
  %22 = and i64 %13, %21
  %23 = mul nuw nsw i64 %22, %19
  %24 = and i64 %23, %13
  %25 = or i64 %16, %24
  ret i64 %25
}